; Function Attrs: nounwind uwtable
define noalias nonnull ptr @l_Lean_mergeStructureResolutionOrders_selectParent___at___private_Lean_Elab_Print_0__Lean_Elab_Command_printStructure___spec__10___lambda__1___boxed(ptr noundef %0, ptr noundef %1, ptr noundef %2, ptr noundef %3, ptr noundef %4, ptr noundef %5, ptr noundef %6, ptr noundef %7, ptr noundef %8) local_unnamed_addr #0 {
  %10 = tail call ptr @l_Lean_mergeStructureResolutionOrders_selectParent___at___private_Lean_Elab_Print_0__Lean_Elab_Command_printStructure___spec__10___lambda__1(ptr noundef %0, ptr poison, ptr poison, ptr poison, ptr poison, ptr poison, ptr poison, ptr poison, ptr noundef %8)
  %11 = ptrtoint ptr %7 to i64
  %12 = and i64 %11, 1
  %.not = icmp eq i64 %12, 0
  br i1 %.not, label %13, label %lean_dec.exit24

13:                                               ; preds = %9
  %14 = load i32, ptr %7, align 4, !tbaa !8
  %15 = icmp sgt i32 %14, 1
  br i1 %15, label %16, label %18, !prof !13

16:                                               ; preds = %13
  %17 = add nsw i32 %14, -1
  store i32 %17, ptr %7, align 4, !tbaa !8
  br label %lean_dec.exit24

18:                                               ; preds = %13
  %.not.i = icmp eq i32 %14, 0
  br i1 %.not.i, label %lean_dec.exit24, label %19

19:                                               ; preds = %18
  tail call void @lean_dec_ref_cold(ptr noundef nonnull %7) #5
  br label %lean_dec.exit24

lean_dec.exit24:                                  ; preds = %19, %18, %16, %9
  %20 = ptrtoint ptr %6 to i64
  %21 = and i64 %20, 1
  %.not39 = icmp eq i64 %21, 0
  br i1 %.not39, label %22, label %lean_dec.exit23

22:                                               ; preds = %lean_dec.exit24
  %23 = load i32, ptr %6, align 4, !tbaa !8
  %24 = icmp sgt i32 %23, 1
  br i1 %24, label %25, label %27, !prof !13

25:                                               ; preds = %22
  %26 = add nsw i32 %23, -1
  store i32 %26, ptr %6, align 4, !tbaa !8
  br label %lean_dec.exit23

27:                                               ; preds = %22
  %.not.i25 = icmp eq i32 %23, 0
  br i1 %.not.i25, label %lean_dec.exit23, label %28

28:                                               ; preds = %27
  tail call void @lean_dec_ref_cold(ptr noundef nonnull %6) #5
  br label %lean_dec.exit23

lean_dec.exit23:                                  ; preds = %28, %27, %25, %lean_dec.exit24
  %29 = ptrtoint ptr %5 to i64
  %30 = and i64 %29, 1
  %.not40 = icmp eq i64 %30, 0
  br i1 %.not40, label %31, label %lean_dec.exit22

31:                                               ; preds = %lean_dec.exit23
  %32 = load i32, ptr %5, align 4, !tbaa !8
  %33 = icmp sgt i32 %32, 1
  br i1 %33, label %34, label %36, !prof !13

34:                                               ; preds = %31
  %35 = add nsw i32 %32, -1
  store i32 %35, ptr %5, align 4, !tbaa !8
  br label %lean_dec.exit22

36:                                               ; preds = %31
  %.not.i27 = icmp eq i32 %32, 0
  br i1 %.not.i27, label %lean_dec.exit22, label %37

37:                                               ; preds = %36
  tail call void @lean_dec_ref_cold(ptr noundef nonnull %5) #5
  br label %lean_dec.exit22

lean_dec.exit22:                                  ; preds = %37, %36, %34, %lean_dec.exit23
  %38 = ptrtoint ptr %4 to i64
  %39 = and i64 %38, 1
  %.not41 = icmp eq i64 %39, 0
  br i1 %.not41, label %40, label %lean_dec.exit21

40:                                               ; preds = %lean_dec.exit22
  %41 = load i32, ptr %4, align 4, !tbaa !8
  %42 = icmp sgt i32 %41, 1
  br i1 %42, label %43, label %45, !prof !13

43:                                               ; preds = %40
  %44 = add nsw i32 %41, -1
  store i32 %44, ptr %4, align 4, !tbaa !8
  br label %lean_dec.exit21

45:                                               ; preds = %40
  %.not.i29 = icmp eq i32 %41, 0
  br i1 %.not.i29, label %lean_dec.exit21, label %46

46:                                               ; preds = %45
  tail call void @lean_dec_ref_cold(ptr noundef nonnull %4) #5
  br label %lean_dec.exit21

lean_dec.exit21:                                  ; preds = %46, %45, %43, %lean_dec.exit22
  %47 = ptrtoint ptr %3 to i64
  %48 = and i64 %47, 1
  %.not42 = icmp eq i64 %48, 0
  br i1 %.not42, label %49, label %lean_dec.exit20

49:                                               ; preds = %lean_dec.exit21
  %50 = load i32, ptr %3, align 4, !tbaa !8
  %51 = icmp sgt i32 %50, 1
  br i1 %51, label %52, label %54, !prof !13

52:                                               ; preds = %49
  %53 = add nsw i32 %50, -1
  store i32 %53, ptr %3, align 4, !tbaa !8
  br label %lean_dec.exit20

54:                                               ; preds = %49
  %.not.i31 = icmp eq i32 %50, 0
  br i1 %.not.i31, label %lean_dec.exit20, label %55

55:                                               ; preds = %54
  tail call void @lean_dec_ref_cold(ptr noundef nonnull %3) #5
  br label %lean_dec.exit20

lean_dec.exit20:                                  ; preds = %55, %54, %52, %lean_dec.exit21
  %56 = ptrtoint ptr %2 to i64
  %57 = and i64 %56, 1
  %.not43 = icmp eq i64 %57, 0
  br i1 %.not43, label %58, label %lean_dec.exit19

58:                                               ; preds = %lean_dec.exit20
  %59 = load i32, ptr %2, align 4, !tbaa !8
  %60 = icmp sgt i32 %59, 1
  br i1 %60, label %61, label %63, !prof !13

61:                                               ; preds = %58
  %62 = add nsw i32 %59, -1
  store i32 %62, ptr %2, align 4, !tbaa !8
  br label %lean_dec.exit19

63:                                               ; preds = %58
  %.not.i33 = icmp eq i32 %59, 0
  br i1 %.not.i33, label %lean_dec.exit19, label %64

64:                                               ; preds = %63
  tail call void @lean_dec_ref_cold(ptr noundef nonnull %2) #5
  br label %lean_dec.exit19

lean_dec.exit19:                                  ; preds = %64, %63, %61, %lean_dec.exit20
  %65 = ptrtoint ptr %1 to i64
  %66 = and i64 %65, 1
  %.not44 = icmp eq i64 %66, 0
  br i1 %.not44, label %67, label %lean_dec.exit18

67:                                               ; preds = %lean_dec.exit19
  %68 = load i32, ptr %1, align 4, !tbaa !8
  %69 = icmp sgt i32 %68, 1
  br i1 %69, label %70, label %72, !prof !13

70:                                               ; preds = %67
  %71 = add nsw i32 %68, -1
  store i32 %71, ptr %1, align 4, !tbaa !8
  br label %lean_dec.exit18

72:                                               ; preds = %67
  %.not.i35 = icmp eq i32 %68, 0
  br i1 %.not.i35, label %lean_dec.exit18, label %73

73:                                               ; preds = %72
  tail call void @lean_dec_ref_cold(ptr noundef nonnull %1) #5
  br label %lean_dec.exit18

lean_dec.exit18:                                  ; preds = %73, %72, %70, %lean_dec.exit19
  %74 = ptrtoint ptr %0 to i64
  %75 = and i64 %74, 1
  %.not45 = icmp eq i64 %75, 0
  br i1 %.not45, label %76, label %lean_dec.exit

76:                                               ; preds = %lean_dec.exit18
  %77 = load i32, ptr %0, align 4, !tbaa !8
  %78 = icmp sgt i32 %77, 1
  br i1 %78, label %79, label %81, !prof !13

79:                                               ; preds = %76
  %80 = add nsw i32 %77, -1
  store i32 %80, ptr %0, align 4, !tbaa !8
  br label %lean_dec.exit

81:                                               ; preds = %76
  %.not.i37 = icmp eq i32 %77, 0
  br i1 %.not.i37, label %lean_dec.exit, label %82

82:                                               ; preds = %81
  tail call void @lean_dec_ref_cold(ptr noundef nonnull %0) #5
  br label %lean_dec.exit

lean_dec.exit:                                    ; preds = %82, %81, %79, %lean_dec.exit18
  ret ptr %10
}